(dp0
I0
S'recursos/Renato/171592922520.Renato.0.jpg'
p1
sI1
S'recursos/Renato/171592922520.Renato.0.jpg'
p2
sI2
S'recursos/Renato/171592922520.Renato.0.jpg'
p3
sI3
S'recursos/Renato/1891592922140.Renato.1.jpg'
p4
sI4
S'recursos/Vitor/1891592922140.Vitor.0.jpg'
p5
sI5
S'recursos/Vitor/1891592922140.Vitor.2.jpg'
p6
sI6
S'recursos/Vitor/1891592922140.Vitor.0.jpg'
p7
sI7
S'recursos/Vitor/1891592922140.Vitor.3.jpg'
p8
s.
